target datalayout = "e-m:e-p270:32:32-p271:32:32-p272:64:64-i64:64-i128:128-f80:128-n8:16:32:64-S128"
target triple = "x86_64-unknown-linux-gnu"

%class.symbol = type { ptr }
%class.decl = type { %class.ast, %class.symbol, ptr }
%class.ast = type { i32, i24, i32, i32 }
%class.decl_info = type <{ i32, i32, %class.vector.132, i8, [7 x i8] }>
%class.vector.132 = type { ptr }
%struct.func_decl_info = type <{ %class.decl_info.base, i16, [5 x i8] }>
%class.decl_info.base = type <{ i32, i32, %class.vector.132, i8 }>

@.str.1 = private unnamed_addr constant [3 x i8] c"=>\00", align 1
@.str.2 = private unnamed_addr constant [4 x i8] c"ite\00", align 1

; Function Attrs: mustprogress nounwind uwtable
define linkonce_odr hidden noundef i32 @_ZNK9decl_info13get_decl_kindEv(ptr noundef nonnull align 8 dereferenceable(17) %this) #5 comdat align 2 {
entry:
  %this.addr = alloca ptr, align 8
  store ptr %this, ptr %this.addr, align 8
  %this1 = load ptr, ptr %this.addr, align 8
  %m_kind = getelementptr inbounds %class.decl_info, ptr %this1, i32 0, i32 1
  %0 = load i32, ptr %m_kind, align 4
  ret i32 %0
}

; Function Attrs: mustprogress nounwind uwtable
define linkonce_odr hidden noundef i32 @_ZNK9decl_info13get_family_idEv(ptr noundef nonnull align 8 dereferenceable(17) %this) #5 comdat align 2 {
entry:
  %this.addr = alloca ptr, align 8
  store ptr %this, ptr %this.addr, align 8
  %this1 = load ptr, ptr %this.addr, align 8
  %m_family_id = getelementptr inbounds %class.decl_info, ptr %this1, i32 0, i32 0
  %0 = load i32, ptr %m_family_id, align 8
  ret i32 %0
}

; Function Attrs: mustprogress uwtable
define linkonce_odr hidden noundef i32 @_ZNK4decl13get_decl_kindEv(ptr noundef nonnull align 8 dereferenceable(32) %this) #4 comdat align 2 {
entry:
  %this.addr = alloca ptr, align 8
  store ptr %this, ptr %this.addr, align 8
  %this1 = load ptr, ptr %this.addr, align 8
  %m_info = getelementptr inbounds %class.decl, ptr %this1, i32 0, i32 2
  %0 = load ptr, ptr %m_info, align 8
  %cmp = icmp eq ptr %0, null
  br i1 %cmp, label %cond.true, label %cond.false

cond.true:                                        ; preds = %entry
  br label %cond.end

cond.false:                                       ; preds = %entry
  %m_info2 = getelementptr inbounds %class.decl, ptr %this1, i32 0, i32 2
  %1 = load ptr, ptr %m_info2, align 8
  %call = call noundef i32 @_ZNK9decl_info13get_decl_kindEv(ptr noundef nonnull align 8 dereferenceable(17) %1)
  br label %cond.end

cond.end:                                         ; preds = %cond.false, %cond.true
  %cond = phi i32 [ -1, %cond.true ], [ %call, %cond.false ]
  ret i32 %cond
}

; Function Attrs: mustprogress uwtable
define linkonce_odr hidden noundef i32 @_ZNK4decl13get_family_idEv(ptr noundef nonnull align 8 dereferenceable(32) %this) #4 comdat align 2 {
entry:
  %this.addr = alloca ptr, align 8
  store ptr %this, ptr %this.addr, align 8
  %this1 = load ptr, ptr %this.addr, align 8
  %m_info = getelementptr inbounds %class.decl, ptr %this1, i32 0, i32 2
  %0 = load ptr, ptr %m_info, align 8
  %cmp = icmp eq ptr %0, null
  br i1 %cmp, label %cond.true, label %cond.false

cond.true:                                        ; preds = %entry
  br label %cond.end

cond.false:                                       ; preds = %entry
  %m_info2 = getelementptr inbounds %class.decl, ptr %this1, i32 0, i32 2
  %1 = load ptr, ptr %m_info2, align 8
  %call = call noundef i32 @_ZNK9decl_info13get_family_idEv(ptr noundef nonnull align 8 dereferenceable(17) %1)
  br label %cond.end

cond.end:                                         ; preds = %cond.false, %cond.true
  %cond = phi i32 [ -1, %cond.true ], [ %call, %cond.false ]
  ret i32 %cond
}

; Function Attrs: mustprogress nounwind uwtable
define linkonce_odr hidden noundef zeroext i1 @_ZNK14func_decl_info9is_skolemEv(ptr noundef nonnull align 8 dereferenceable(19) %this) #5 comdat align 2 {
entry:
  %this.addr = alloca ptr, align 8
  store ptr %this, ptr %this.addr, align 8
  %this1 = load ptr, ptr %this.addr, align 8
  %m_skolem = getelementptr inbounds %struct.func_decl_info, ptr %this1, i32 0, i32 1
  %bf.load = load i16, ptr %m_skolem, align 1
  %bf.lshr = lshr i16 %bf.load, 8
  %bf.clear = and i16 %bf.lshr, 1
  %bf.cast = trunc i16 %bf.clear to i1
  ret i1 %bf.cast
}

; Function Attrs: mustprogress nounwind uwtable
define linkonce_odr hidden noundef ptr @_ZNK9func_decl8get_infoEv(ptr noundef nonnull align 8 dereferenceable(48) %this) #5 comdat align 2 {
entry:
  %this.addr = alloca ptr, align 8
  store ptr %this, ptr %this.addr, align 8
  %this1 = load ptr, ptr %this.addr, align 8
  %m_info = getelementptr inbounds %class.decl, ptr %this1, i32 0, i32 2
  %0 = load ptr, ptr %m_info, align 8
  ret ptr %0
}

; Function Attrs: mustprogress uwtable
define linkonce_odr hidden noundef zeroext i1 @_Z10is_decl_ofPK9func_declii(ptr noundef %d, i32 noundef %fid, i32 noundef %k) #4 comdat {
entry:
  %d.addr = alloca ptr, align 8
  %fid.addr = alloca i32, align 4
  %k.addr = alloca i32, align 4
  store ptr %d, ptr %d.addr, align 8
  store i32 %fid, ptr %fid.addr, align 4
  store i32 %k, ptr %k.addr, align 4
  %0 = load ptr, ptr %d.addr, align 8
  %call = call noundef i32 @_ZNK4decl13get_family_idEv(ptr noundef nonnull align 8 dereferenceable(32) %0)
  %1 = load i32, ptr %fid.addr, align 4
  %cmp = icmp eq i32 %call, %1
  br i1 %cmp, label %land.rhs, label %land.end

land.rhs:                                         ; preds = %entry
  %2 = load ptr, ptr %d.addr, align 8
  %call1 = call noundef i32 @_ZNK4decl13get_decl_kindEv(ptr noundef nonnull align 8 dereferenceable(32) %2)
  %3 = load i32, ptr %k.addr, align 4
  %cmp2 = icmp eq i32 %call1, %3
  br label %land.end

land.end:                                         ; preds = %land.rhs, %entry
  %4 = phi i1 [ false, %entry ], [ %cmp2, %land.rhs ]
  ret i1 %4
}

; Function Attrs: mustprogress uwtable
define linkonce_odr hidden noundef zeroext i1 @_ZNK9func_decl9is_skolemEv(ptr noundef nonnull align 8 dereferenceable(48) %this) #4 comdat align 2 {
entry:
  %this.addr = alloca ptr, align 8
  store ptr %this, ptr %this.addr, align 8
  %this1 = load ptr, ptr %this.addr, align 8
  %call = call noundef ptr @_ZNK9func_decl8get_infoEv(ptr noundef nonnull align 8 dereferenceable(48) %this1)
  %cmp = icmp ne ptr %call, null
  br i1 %cmp, label %land.rhs, label %land.end

land.rhs:                                         ; preds = %entry
  %call2 = call noundef ptr @_ZNK9func_decl8get_infoEv(ptr noundef nonnull align 8 dereferenceable(48) %this1)
  %call3 = call noundef zeroext i1 @_ZNK14func_decl_info9is_skolemEv(ptr noundef nonnull align 8 dereferenceable(19) %call2)
  br label %land.end

land.end:                                         ; preds = %land.rhs, %entry
  %0 = phi i1 [ false, %entry ], [ %call3, %land.rhs ]
  ret i1 %0
}

; Function Attrs: mustprogress nounwind uwtable
define linkonce_odr hidden noundef nonnull align 8 dereferenceable(8) ptr @_ZNK4decl8get_nameEv(ptr noundef nonnull align 8 dereferenceable(32) %this) #5 comdat align 2 {
entry:
  %this.addr = alloca ptr, align 8
  store ptr %this, ptr %this.addr, align 8
  %this1 = load ptr, ptr %this.addr, align 8
  %m_name = getelementptr inbounds %class.decl, ptr %this1, i32 0, i32 1
  ret ptr %m_name
}

; Function Attrs: mustprogress uwtable
define linkonce_odr hidden noundef zeroext i1 @_ZNK11ast_manager6is_iteEPK9func_decl(ptr noundef nonnull align 8 dereferenceable(976) %this, ptr noundef %d) #4 comdat align 2 {
entry:
  %this.addr = alloca ptr, align 8
  %d.addr = alloca ptr, align 8
  store ptr %this, ptr %this.addr, align 8
  store ptr %d, ptr %d.addr, align 8
  %0 = load ptr, ptr %d.addr, align 8
  %call = call noundef zeroext i1 @_Z10is_decl_ofPK9func_declii(ptr noundef %0, i32 noundef 0, i32 noundef 4)
  ret i1 %call
}

; Function Attrs: mustprogress uwtable
define linkonce_odr hidden noundef zeroext i1 @_ZNK11ast_manager10is_impliesEPK9func_decl(ptr noundef nonnull align 8 dereferenceable(976) %this, ptr noundef %d) #4 comdat align 2 {
entry:
  %this.addr = alloca ptr, align 8
  %d.addr = alloca ptr, align 8
  store ptr %this, ptr %this.addr, align 8
  store ptr %d, ptr %d.addr, align 8
  %0 = load ptr, ptr %d.addr, align 8
  %call = call noundef zeroext i1 @_Z10is_decl_ofPK9func_declii(ptr noundef %0, i32 noundef 0, i32 noundef 9)
  ret i1 %call
}

; Function Attrs: mustprogress uwtable
define hidden noundef ptr @_ZNK19smt2_pp_environment13pp_fdecl_nameEP9func_declRj(ptr noundef nonnull align 8 dereferenceable(56) %this, ptr noundef %f, ptr noundef nonnull align 4 dereferenceable(4) %len) #4 align 2 {
entry:
  %retval = alloca ptr, align 8
  %this.addr = alloca ptr, align 8
  %f.addr = alloca ptr, align 8
  %len.addr = alloca ptr, align 8
  %m = alloca ptr, align 8
  %s = alloca %class.symbol, align 8
  store ptr %this, ptr %this.addr, align 8
  store ptr %f, ptr %f.addr, align 8
  store ptr %len, ptr %len.addr, align 8
  %this1 = load ptr, ptr %this.addr, align 8
  %vtable = load ptr, ptr %this1, align 8
  %vfn = getelementptr inbounds ptr, ptr %vtable, i64 2
  %0 = load ptr, ptr %vfn, align 8
  %call = call noundef nonnull align 8 dereferenceable(976) ptr %0(ptr noundef nonnull align 8 dereferenceable(56) %this1)
  store ptr %call, ptr %m, align 8
  %1 = load ptr, ptr %m, align 8
  %2 = load ptr, ptr %f.addr, align 8
  %call2 = call noundef zeroext i1 @_ZNK11ast_manager10is_impliesEPK9func_decl(ptr noundef nonnull align 8 dereferenceable(976) %1, ptr noundef %2)
  br i1 %call2, label %if.then, label %if.else

if.then:                                          ; preds = %entry
  %3 = load ptr, ptr %len.addr, align 8
  store i32 2, ptr %3, align 4
  %4 = load ptr, ptr %m, align 8
  %call3 = call noundef ptr @_ZN9format_ns9mk_stringER11ast_managerPKc(ptr noundef nonnull align 8 dereferenceable(976) %4, ptr noundef @.str.1)
  store ptr %call3, ptr %retval, align 8
  br label %return

if.else:                                          ; preds = %entry
  %5 = load ptr, ptr %m, align 8
  %6 = load ptr, ptr %f.addr, align 8
  %call4 = call noundef zeroext i1 @_ZNK11ast_manager6is_iteEPK9func_decl(ptr noundef nonnull align 8 dereferenceable(976) %5, ptr noundef %6)
  br i1 %call4, label %if.then5, label %if.else7

if.then5:                                         ; preds = %if.else
  %7 = load ptr, ptr %len.addr, align 8
  store i32 3, ptr %7, align 4
  %8 = load ptr, ptr %m, align 8
  %call6 = call noundef ptr @_ZN9format_ns9mk_stringER11ast_managerPKc(ptr noundef nonnull align 8 dereferenceable(976) %8, ptr noundef @.str.2)
  store ptr %call6, ptr %retval, align 8
  br label %return

if.else7:                                         ; preds = %if.else
  %9 = load ptr, ptr %f.addr, align 8
  %call8 = call noundef nonnull align 8 dereferenceable(8) ptr @_ZNK4decl8get_nameEv(ptr noundef nonnull align 8 dereferenceable(32) %9)
  call void @llvm.memcpy.p0.p0.i64(ptr align 8 %s, ptr align 8 %call8, i64 8, i1 false)
  %10 = load ptr, ptr %len.addr, align 8
  %11 = load ptr, ptr %f.addr, align 8
  %call9 = call noundef zeroext i1 @_ZNK9func_decl9is_skolemEv(ptr noundef nonnull align 8 dereferenceable(48) %11)
  %call10 = call noundef ptr @_ZNK19smt2_pp_environment13pp_fdecl_nameERK6symbolRjb(ptr noundef nonnull align 8 dereferenceable(56) %this1, ptr noundef nonnull align 8 dereferenceable(8) %s, ptr noundef nonnull align 4 dereferenceable(4) %10, i1 noundef zeroext %call9)
  store ptr %call10, ptr %retval, align 8
  br label %return

return:                                           ; preds = %if.else7, %if.then5, %if.then
  %12 = load ptr, ptr %retval, align 8
  ret ptr %12
}