; Function Attrs: mustprogress uwtable
define hidden noundef ptr @_ZNK19smt2_pp_environment13pp_fdecl_nameEP9func_declRj(ptr noundef nonnull align 8 dereferenceable(56) %this, ptr nocapture noundef readonly %f, ptr nocapture noundef nonnull writeonly align 4 dereferenceable(4) %len) local_unnamed_addr #3 align 2 {
entry:
  %s = alloca %class.symbol, align 8
  %vtable = load ptr, ptr %this, align 8
  %vfn = getelementptr inbounds i8, ptr %vtable, i64 16
  %0 = load ptr, ptr %vfn, align 8
  %call = tail call noundef nonnull align 8 dereferenceable(976) ptr %0(ptr noundef nonnull align 8 dereferenceable(56) %this)
  %m_info.i.i.i = getelementptr inbounds i8, ptr %f, i64 24
  %1 = load ptr, ptr %m_info.i.i.i, align 8
  %cmp.i.i.i = icmp eq ptr %1, null
  br i1 %cmp.i.i.i, label %_ZNK9func_decl9is_skolemEv.exit, label %_ZNK4decl13get_family_idEv.exit.thread.i.i

_ZNK4decl13get_family_idEv.exit.thread.i.i:       ; preds = %entry
  %2 = load i32, ptr %1, align 8
  %cmp7.i.i = icmp eq i32 %2, 0
  br i1 %cmp7.i.i, label %_ZNK11ast_manager10is_impliesEPK9func_decl.exit, label %_ZNK9func_decl9is_skolemEv.exit

_ZNK11ast_manager10is_impliesEPK9func_decl.exit:  ; preds = %_ZNK4decl13get_family_idEv.exit.thread.i.i
  %m_kind.i.i.i.i = getelementptr inbounds i8, ptr %1, i64 4
  %3 = load i32, ptr %m_kind.i.i.i.i, align 4
  switch i32 %3, label %_ZNK9func_decl9is_skolemEv.exit [
    i32 9, label %if.then
    i32 4, label %if.then5
  ]

if.then:                                          ; preds = %_ZNK11ast_manager10is_impliesEPK9func_decl.exit
  store i32 2, ptr %len, align 4
  %call3 = tail call noundef ptr @_ZN9format_ns9mk_stringER11ast_managerPKc(ptr noundef nonnull align 8 dereferenceable(976) %call, ptr noundef nonnull @.str.1)
  br label %return

if.then5:                                         ; preds = %_ZNK11ast_manager10is_impliesEPK9func_decl.exit
  store i32 3, ptr %len, align 4
  %call6 = tail call noundef ptr @_ZN9format_ns9mk_stringER11ast_managerPKc(ptr noundef nonnull align 8 dereferenceable(976) %call, ptr noundef nonnull @.str.2)
  br label %return

_ZNK9func_decl9is_skolemEv.exit:                  ; preds = %_ZNK4decl13get_family_idEv.exit.thread.i.i, %_ZNK11ast_manager10is_impliesEPK9func_decl.exit, %entry
  %storemerge21.in = getelementptr inbounds i8, ptr %f, i64 16
  %storemerge21 = load i64, ptr %storemerge21.in, align 8
  store i64 %storemerge21, ptr %s, align 8
  %call10 = call noundef ptr @_ZNK19smt2_pp_environment13pp_fdecl_nameERK6symbolRjb(ptr noundef nonnull align 8 dereferenceable(56) %this, ptr noundef nonnull align 8 dereferenceable(8) %s, ptr noundef nonnull align 4 dereferenceable(4) %len, i1 zeroext poison)
  br label %return

return:                                           ; preds = %_ZNK9func_decl9is_skolemEv.exit, %if.then5, %if.then
  %retval.0 = phi ptr [ %call3, %if.then ], [ %call6, %if.then5 ], [ %call10, %_ZNK9func_decl9is_skolemEv.exit ]
  ret ptr %retval.0
}